target datalayout = "e-m:e-p270:32:32-p271:32:32-p272:64:64-i64:64-i128:128-f80:128-n8:16:32:64-S128"
target triple = "x86_64-unknown-linux-gnu"

%class.fpa2bv_model_converter = type { %class.model_converter.base, ptr, ptr }
%class.model_converter.base = type <{ %class.converter.base, [4 x i8], ptr, i8 }>
%class.converter.base = type <{ ptr, i32 }>
%class.ast_translation = type <{ ptr, ptr, %class.svector, %class.ptr_vector, %class.ptr_vector, %class.obj_map.11, i32, i32, i32, i32, i32, [4 x i8] }>
%class.svector = type { %class.vector }
%class.vector = type { ptr }
%class.ptr_vector = type { %class.vector.10 }
%class.vector.10 = type { ptr }
%class.obj_map.11 = type { %class.core_hashtable.12 }
%class.core_hashtable.12 = type <{ ptr, i32, i32, i32, [4 x i8] }>
%class.model_converter = type <{ %class.converter.base, [4 x i8], ptr, i8, [7 x i8] }>
%class.converter = type <{ ptr, i32, [4 x i8] }>

@_ZTV15model_converter = external unnamed_addr constant { [12 x ptr] }, align 8
@_ZTV9converter = linkonce_odr hidden unnamed_addr constant { [6 x ptr] } { [6 x ptr] [ptr null, ptr @_ZTI9converter, ptr @_ZN9converterD2Ev, ptr @_ZN9converterD0Ev, ptr @_ZN9converter6cancelEv, ptr @__cxa_pure_virtual] }, comdat, align 8

; Function Attrs: mustprogress nounwind uwtable
define linkonce_odr hidden void @_ZN9converterC2Ev(ptr noundef nonnull align 8 dereferenceable(12) %this) unnamed_addr #5 comdat align 2 {
entry:
  %this.addr = alloca ptr, align 8
  store ptr %this, ptr %this.addr, align 8
  %this1 = load ptr, ptr %this.addr, align 8
  store ptr getelementptr inbounds ({ [6 x ptr] }, ptr @_ZTV9converter, i32 0, i32 0, i32 2), ptr %this1, align 8
  %m_ref_count = getelementptr inbounds %class.converter, ptr %this1, i32 0, i32 1
  store i32 0, ptr %m_ref_count, align 8
  ret void
}

; Function Attrs: mustprogress uwtable
define linkonce_odr hidden void @_ZN15model_converterC2Ev(ptr noundef nonnull align 8 dereferenceable(25) %this) unnamed_addr #4 comdat align 2 {
entry:
  %this.addr = alloca ptr, align 8
  store ptr %this, ptr %this.addr, align 8
  %this1 = load ptr, ptr %this.addr, align 8
  call void @_ZN9converterC2Ev(ptr noundef nonnull align 8 dereferenceable(12) %this1)
  store ptr getelementptr inbounds ({ [12 x ptr] }, ptr @_ZTV15model_converter, i32 0, i32 0, i32 2), ptr %this1, align 8
  %m_env = getelementptr inbounds %class.model_converter, ptr %this1, i32 0, i32 2
  store ptr null, ptr %m_env, align 8
  %m_completion = getelementptr inbounds %class.model_converter, ptr %this1, i32 0, i32 3
  store i8 1, ptr %m_completion, align 8
  ret void
}

; Function Attrs: mustprogress uwtable
define linkonce_odr hidden void @_ZN22fpa2bv_model_converterC2ER11ast_manager(ptr noundef nonnull align 8 dereferenceable(48) %this, ptr noundef nonnull align 8 dereferenceable(976) %m) unnamed_addr #4 comdat align 2 {
entry:
  %this.addr = alloca ptr, align 8
  %m.addr = alloca ptr, align 8
  store ptr %this, ptr %this.addr, align 8
  store ptr %m, ptr %m.addr, align 8
  %this1 = load ptr, ptr %this.addr, align 8
  call void @_ZN15model_converterC2Ev(ptr noundef nonnull align 8 dereferenceable(25) %this1)
  store ptr getelementptr inbounds ({ [12 x ptr] }, ptr @_ZTV22fpa2bv_model_converter, i32 0, i32 0, i32 2), ptr %this1, align 8
  %m2 = getelementptr inbounds %class.fpa2bv_model_converter, ptr %this1, i32 0, i32 1
  %0 = load ptr, ptr %m.addr, align 8
  store ptr %0, ptr %m2, align 8
  %m_bv2fp = getelementptr inbounds %class.fpa2bv_model_converter, ptr %this1, i32 0, i32 2
  store ptr null, ptr %m_bv2fp, align 8
  ret void
}

; Function Attrs: mustprogress nounwind uwtable
define linkonce_odr hidden noundef nonnull align 8 dereferenceable(976) ptr @_ZNK15ast_translation2toEv(ptr noundef nonnull align 8 dereferenceable(84) %this) #5 comdat align 2 {
entry:
  %this.addr = alloca ptr, align 8
  store ptr %this, ptr %this.addr, align 8
  %this1 = load ptr, ptr %this.addr, align 8
  %m_to_manager = getelementptr inbounds %class.ast_translation, ptr %this1, i32 0, i32 1
  %0 = load ptr, ptr %m_to_manager, align 8
  ret ptr %0
}

; Function Attrs: mustprogress uwtable
define hidden noundef ptr @_ZN22fpa2bv_model_converter9translateER15ast_translation(ptr noundef nonnull align 8 dereferenceable(48) %this, ptr noundef nonnull align 8 dereferenceable(84) %translator) unnamed_addr #4 align 2 {
entry:
  %this.addr = alloca ptr, align 8
  %translator.addr = alloca ptr, align 8
  %res = alloca ptr, align 8
  store ptr %this, ptr %this.addr, align 8
  store ptr %translator, ptr %translator.addr, align 8
  %this1 = load ptr, ptr %this.addr, align 8
  %call = call noalias noundef ptr @_ZN6memory8allocateEm(i64 noundef 48)
  %0 = load ptr, ptr %translator.addr, align 8
  %call2 = call noundef nonnull align 8 dereferenceable(976) ptr @_ZNK15ast_translation2toEv(ptr noundef nonnull align 8 dereferenceable(84) %0)
  call void @_ZN22fpa2bv_model_converterC2ER11ast_manager(ptr noundef nonnull align 8 dereferenceable(48) %call, ptr noundef nonnull align 8 dereferenceable(976) %call2)
  store ptr %call, ptr %res, align 8
  %m_bv2fp = getelementptr inbounds %class.fpa2bv_model_converter, ptr %this1, i32 0, i32 2
  %1 = load ptr, ptr %m_bv2fp, align 8
  %2 = load ptr, ptr %translator.addr, align 8
  %call3 = call noundef ptr @_ZN16bv2fpa_converter9translateER15ast_translation(ptr noundef nonnull align 8 dereferenceable(216) %1, ptr noundef nonnull align 8 dereferenceable(84) %2)
  %3 = load ptr, ptr %res, align 8
  %m_bv2fp4 = getelementptr inbounds %class.fpa2bv_model_converter, ptr %3, i32 0, i32 2
  store ptr %call3, ptr %m_bv2fp4, align 8
  %4 = load ptr, ptr %res, align 8
  ret ptr %4
}