; Function Attrs: mustprogress uwtable
define hidden noalias noundef ptr @_ZN22fpa2bv_model_converter9translateER15ast_translation(ptr nocapture noundef nonnull readonly align 8 dereferenceable(48) %this, ptr noundef nonnull align 8 dereferenceable(84) %translator) unnamed_addr #3 align 2 {
entry:
  %call = tail call noalias noundef ptr @_ZN6memory8allocateEm(i64 noundef 48)
  %m_to_manager.i = getelementptr inbounds i8, ptr %translator, i64 8
  %0 = load ptr, ptr %m_to_manager.i, align 8
  %m_ref_count.i.i.i = getelementptr inbounds i8, ptr %call, i64 8
  store i32 0, ptr %m_ref_count.i.i.i, align 8
  %m_env.i.i = getelementptr inbounds i8, ptr %call, i64 16
  store ptr null, ptr %m_env.i.i, align 8
  %m_completion.i.i = getelementptr inbounds i8, ptr %call, i64 24
  store i8 1, ptr %m_completion.i.i, align 8
  store ptr getelementptr inbounds ({ [12 x ptr] }, ptr @_ZTV22fpa2bv_model_converter, i64 0, i32 0, i64 2), ptr %call, align 8
  %m2.i = getelementptr inbounds i8, ptr %call, i64 32
  store ptr %0, ptr %m2.i, align 8
  %m_bv2fp.i = getelementptr inbounds i8, ptr %call, i64 40
  %m_bv2fp = getelementptr inbounds i8, ptr %this, i64 40
  %1 = load ptr, ptr %m_bv2fp, align 8
  %call3 = tail call noundef ptr @_ZN16bv2fpa_converter9translateER15ast_translation(ptr noundef nonnull align 8 dereferenceable(216) %1, ptr noundef nonnull align 8 dereferenceable(84) %translator)
  store ptr %call3, ptr %m_bv2fp.i, align 8
  ret ptr %call
}